
casino:     file format elf32-i386


Disassembly of section .init:

08049000 <_init>:
 8049000:	f3 0f 1e fb          	endbr32
 8049004:	53                   	push   ebx
 8049005:	83 ec 08             	sub    esp,0x8
 8049008:	e8 63 01 00 00       	call   8049170 <__x86.get_pc_thunk.bx>
 804900d:	81 c3 f3 2f 00 00    	add    ebx,0x2ff3
 8049013:	8b 83 fc ff ff ff    	mov    eax,DWORD PTR [ebx-0x4]
 8049019:	85 c0                	test   eax,eax
 804901b:	74 02                	je     804901f <_init+0x1f>
 804901d:	ff d0                	call   eax
 804901f:	83 c4 08             	add    esp,0x8
 8049022:	5b                   	pop    ebx
 8049023:	c3                   	ret

Disassembly of section .plt:

08049030 <strcmp@plt-0x10>:
 8049030:	ff 35 04 c0 04 08    	push   DWORD PTR ds:0x804c004
 8049036:	ff 25 08 c0 04 08    	jmp    DWORD PTR ds:0x804c008
 804903c:	00 00                	add    BYTE PTR [eax],al
	...

08049040 <strcmp@plt>:
 8049040:	ff 25 0c c0 04 08    	jmp    DWORD PTR ds:0x804c00c
 8049046:	68 00 00 00 00       	push   0x0
 804904b:	e9 e0 ff ff ff       	jmp    8049030 <_init+0x30>

08049050 <__libc_start_main@plt>:
 8049050:	ff 25 10 c0 04 08    	jmp    DWORD PTR ds:0x804c010
 8049056:	68 08 00 00 00       	push   0x8
 804905b:	e9 d0 ff ff ff       	jmp    8049030 <_init+0x30>

08049060 <fflush@plt>:
 8049060:	ff 25 14 c0 04 08    	jmp    DWORD PTR ds:0x804c014
 8049066:	68 10 00 00 00       	push   0x10
 804906b:	e9 c0 ff ff ff       	jmp    8049030 <_init+0x30>

08049070 <fgets@plt>:
 8049070:	ff 25 18 c0 04 08    	jmp    DWORD PTR ds:0x804c018
 8049076:	68 18 00 00 00       	push   0x18
 804907b:	e9 b0 ff ff ff       	jmp    8049030 <_init+0x30>

08049080 <fclose@plt>:
 8049080:	ff 25 1c c0 04 08    	jmp    DWORD PTR ds:0x804c01c
 8049086:	68 20 00 00 00       	push   0x20
 804908b:	e9 a0 ff ff ff       	jmp    8049030 <_init+0x30>

08049090 <time@plt>:
 8049090:	ff 25 20 c0 04 08    	jmp    DWORD PTR ds:0x804c020
 8049096:	68 28 00 00 00       	push   0x28
 804909b:	e9 90 ff ff ff       	jmp    8049030 <_init+0x30>

080490a0 <puts@plt>:
 80490a0:	ff 25 24 c0 04 08    	jmp    DWORD PTR ds:0x804c024
 80490a6:	68 30 00 00 00       	push   0x30
 80490ab:	e9 80 ff ff ff       	jmp    8049030 <_init+0x30>

080490b0 <exit@plt>:
 80490b0:	ff 25 28 c0 04 08    	jmp    DWORD PTR ds:0x804c028
 80490b6:	68 38 00 00 00       	push   0x38
 80490bb:	e9 70 ff ff ff       	jmp    8049030 <_init+0x30>

080490c0 <srand@plt>:
 80490c0:	ff 25 2c c0 04 08    	jmp    DWORD PTR ds:0x804c02c
 80490c6:	68 40 00 00 00       	push   0x40
 80490cb:	e9 60 ff ff ff       	jmp    8049030 <_init+0x30>

080490d0 <fopen@plt>:
 80490d0:	ff 25 30 c0 04 08    	jmp    DWORD PTR ds:0x804c030
 80490d6:	68 48 00 00 00       	push   0x48
 80490db:	e9 50 ff ff ff       	jmp    8049030 <_init+0x30>

080490e0 <rand@plt>:
 80490e0:	ff 25 34 c0 04 08    	jmp    DWORD PTR ds:0x804c034
 80490e6:	68 50 00 00 00       	push   0x50
 80490eb:	e9 40 ff ff ff       	jmp    8049030 <_init+0x30>

080490f0 <__printf_chk@plt>:
 80490f0:	ff 25 38 c0 04 08    	jmp    DWORD PTR ds:0x804c038
 80490f6:	68 58 00 00 00       	push   0x58
 80490fb:	e9 30 ff ff ff       	jmp    8049030 <_init+0x30>

08049100 <__isoc99_scanf@plt>:
 8049100:	ff 25 3c c0 04 08    	jmp    DWORD PTR ds:0x804c03c
 8049106:	68 60 00 00 00       	push   0x60
 804910b:	e9 20 ff ff ff       	jmp    8049030 <_init+0x30>

08049110 <getc@plt>:
 8049110:	ff 25 40 c0 04 08    	jmp    DWORD PTR ds:0x804c040
 8049116:	68 68 00 00 00       	push   0x68
 804911b:	e9 10 ff ff ff       	jmp    8049030 <_init+0x30>

Disassembly of section .text:

08049120 <_start>:
 8049120:	f3 0f 1e fb          	endbr32
 8049124:	31 ed                	xor    ebp,ebp
 8049126:	5e                   	pop    esi
 8049127:	89 e1                	mov    ecx,esp
 8049129:	83 e4 f0             	and    esp,0xfffffff0
 804912c:	50                   	push   eax
 804912d:	54                   	push   esp
 804912e:	52                   	push   edx
 804912f:	e8 19 00 00 00       	call   804914d <_start+0x2d>
 8049134:	81 c3 cc 2e 00 00    	add    ebx,0x2ecc
 804913a:	6a 00                	push   0x0
 804913c:	6a 00                	push   0x0
 804913e:	51                   	push   ecx
 804913f:	56                   	push   esi
 8049140:	c7 c0 58 95 04 08    	mov    eax,0x8049558
 8049146:	50                   	push   eax
 8049147:	e8 04 ff ff ff       	call   8049050 <__libc_start_main@plt>
 804914c:	f4                   	hlt
 804914d:	8b 1c 24             	mov    ebx,DWORD PTR [esp]
 8049150:	c3                   	ret
 8049151:	66 90                	xchg   ax,ax
 8049153:	66 90                	xchg   ax,ax
 8049155:	66 90                	xchg   ax,ax
 8049157:	66 90                	xchg   ax,ax
 8049159:	66 90                	xchg   ax,ax
 804915b:	66 90                	xchg   ax,ax
 804915d:	66 90                	xchg   ax,ax
 804915f:	90                   	nop

08049160 <_dl_relocate_static_pie>:
 8049160:	f3 0f 1e fb          	endbr32
 8049164:	c3                   	ret
 8049165:	66 90                	xchg   ax,ax
 8049167:	66 90                	xchg   ax,ax
 8049169:	66 90                	xchg   ax,ax
 804916b:	66 90                	xchg   ax,ax
 804916d:	66 90                	xchg   ax,ax
 804916f:	90                   	nop

08049170 <__x86.get_pc_thunk.bx>:
 8049170:	8b 1c 24             	mov    ebx,DWORD PTR [esp]
 8049173:	c3                   	ret
 8049174:	66 90                	xchg   ax,ax
 8049176:	66 90                	xchg   ax,ax
 8049178:	66 90                	xchg   ax,ax
 804917a:	66 90                	xchg   ax,ax
 804917c:	66 90                	xchg   ax,ax
 804917e:	66 90                	xchg   ax,ax

08049180 <deregister_tm_clones>:
 8049180:	b8 4c c0 04 08       	mov    eax,0x804c04c
 8049185:	3d 4c c0 04 08       	cmp    eax,0x804c04c
 804918a:	74 24                	je     80491b0 <deregister_tm_clones+0x30>
 804918c:	b8 00 00 00 00       	mov    eax,0x0
 8049191:	85 c0                	test   eax,eax
 8049193:	74 1b                	je     80491b0 <deregister_tm_clones+0x30>
 8049195:	55                   	push   ebp
 8049196:	89 e5                	mov    ebp,esp
 8049198:	83 ec 14             	sub    esp,0x14
 804919b:	68 4c c0 04 08       	push   0x804c04c
 80491a0:	ff d0                	call   eax
 80491a2:	83 c4 10             	add    esp,0x10
 80491a5:	c9                   	leave
 80491a6:	c3                   	ret
 80491a7:	8d b4 26 00 00 00 00 	lea    esi,[esi+eiz*1+0x0]
 80491ae:	66 90                	xchg   ax,ax
 80491b0:	c3                   	ret
 80491b1:	8d b4 26 00 00 00 00 	lea    esi,[esi+eiz*1+0x0]
 80491b8:	8d b4 26 00 00 00 00 	lea    esi,[esi+eiz*1+0x0]
 80491bf:	90                   	nop

080491c0 <register_tm_clones>:
 80491c0:	b8 4c c0 04 08       	mov    eax,0x804c04c
 80491c5:	2d 4c c0 04 08       	sub    eax,0x804c04c
 80491ca:	89 c2                	mov    edx,eax
 80491cc:	c1 e8 1f             	shr    eax,0x1f
 80491cf:	c1 fa 02             	sar    edx,0x2
 80491d2:	01 d0                	add    eax,edx
 80491d4:	d1 f8                	sar    eax,1
 80491d6:	74 20                	je     80491f8 <register_tm_clones+0x38>
 80491d8:	ba 00 00 00 00       	mov    edx,0x0
 80491dd:	85 d2                	test   edx,edx
 80491df:	74 17                	je     80491f8 <register_tm_clones+0x38>
 80491e1:	55                   	push   ebp
 80491e2:	89 e5                	mov    ebp,esp
 80491e4:	83 ec 10             	sub    esp,0x10
 80491e7:	50                   	push   eax
 80491e8:	68 4c c0 04 08       	push   0x804c04c
 80491ed:	ff d2                	call   edx
 80491ef:	83 c4 10             	add    esp,0x10
 80491f2:	c9                   	leave
 80491f3:	c3                   	ret
 80491f4:	8d 74 26 00          	lea    esi,[esi+eiz*1+0x0]
 80491f8:	c3                   	ret
 80491f9:	8d b4 26 00 00 00 00 	lea    esi,[esi+eiz*1+0x0]

08049200 <__do_global_dtors_aux>:
 8049200:	f3 0f 1e fb          	endbr32
 8049204:	80 3d 68 c0 04 08 00 	cmp    BYTE PTR ds:0x804c068,0x0
 804920b:	75 1b                	jne    8049228 <__do_global_dtors_aux+0x28>
 804920d:	55                   	push   ebp
 804920e:	89 e5                	mov    ebp,esp
 8049210:	83 ec 08             	sub    esp,0x8
 8049213:	e8 68 ff ff ff       	call   8049180 <deregister_tm_clones>
 8049218:	c6 05 68 c0 04 08 01 	mov    BYTE PTR ds:0x804c068,0x1
 804921f:	c9                   	leave
 8049220:	c3                   	ret
 8049221:	8d b4 26 00 00 00 00 	lea    esi,[esi+eiz*1+0x0]
 8049228:	c3                   	ret
 8049229:	8d b4 26 00 00 00 00 	lea    esi,[esi+eiz*1+0x0]

08049230 <frame_dummy>:
 8049230:	f3 0f 1e fb          	endbr32
 8049234:	eb 8a                	jmp    80491c0 <register_tm_clones>

08049236 <win>:
 8049236:	56                   	push   esi
 8049237:	53                   	push   ebx
 8049238:	83 ec 74             	sub    esp,0x74
 804923b:	8b 9c 24 80 00 00 00 	mov    ebx,DWORD PTR [esp+0x80]
 8049242:	3b 1d 70 c0 04 08    	cmp    ebx,DWORD PTR ds:0x804c070
 8049248:	74 27                	je     8049271 <win+0x3b>
 804924a:	83 ec 0c             	sub    esp,0xc
 804924d:	68 08 a0 04 08       	push   0x804a008
 8049252:	e8 49 fe ff ff       	call   80490a0 <puts@plt>
 8049257:	83 c4 04             	add    esp,0x4
 804925a:	ff 35 64 c0 04 08    	push   DWORD PTR ds:0x804c064
 8049260:	e8 fb fd ff ff       	call   8049060 <fflush@plt>
 8049265:	c7 04 24 02 00 00 00 	mov    DWORD PTR [esp],0x2
 804926c:	e8 3f fe ff ff       	call   80490b0 <exit@plt>
 8049271:	83 ec 08             	sub    esp,0x8
 8049274:	68 1c a0 04 08       	push   0x804a01c
 8049279:	68 1e a0 04 08       	push   0x804a01e
 804927e:	e8 4d fe ff ff       	call   80490d0 <fopen@plt>
 8049283:	89 c6                	mov    esi,eax
 8049285:	83 c4 10             	add    esp,0x10
 8049288:	85 c0                	test   eax,eax
 804928a:	74 4a                	je     80492d6 <win+0xa0>
 804928c:	83 ec 04             	sub    esp,0x4
 804928f:	50                   	push   eax
 8049290:	6a 63                	push   0x63
 8049292:	8d 44 24 18          	lea    eax,[esp+0x18]
 8049296:	50                   	push   eax
 8049297:	e8 d4 fd ff ff       	call   8049070 <fgets@plt>
 804929c:	89 34 24             	mov    DWORD PTR [esp],esi
 804929f:	e8 dc fd ff ff       	call   8049080 <fclose@plt>
 80492a4:	83 c4 10             	add    esp,0x10
 80492a7:	3b 1d 70 c0 04 08    	cmp    ebx,DWORD PTR ds:0x804c070
 80492ad:	74 4e                	je     80492fd <win+0xc7>
 80492af:	83 ec 0c             	sub    esp,0xc
 80492b2:	68 34 a1 04 08       	push   0x804a134
 80492b7:	e8 e4 fd ff ff       	call   80490a0 <puts@plt>
 80492bc:	83 c4 04             	add    esp,0x4
 80492bf:	ff 35 64 c0 04 08    	push   DWORD PTR ds:0x804c064
 80492c5:	e8 96 fd ff ff       	call   8049060 <fflush@plt>
 80492ca:	c7 04 24 02 00 00 00 	mov    DWORD PTR [esp],0x2
 80492d1:	e8 da fd ff ff       	call   80490b0 <exit@plt>
 80492d6:	83 ec 0c             	sub    esp,0xc
 80492d9:	68 d8 a0 04 08       	push   0x804a0d8
 80492de:	e8 bd fd ff ff       	call   80490a0 <puts@plt>
 80492e3:	83 c4 04             	add    esp,0x4
 80492e6:	ff 35 64 c0 04 08    	push   DWORD PTR ds:0x804c064
 80492ec:	e8 6f fd ff ff       	call   8049060 <fflush@plt>
 80492f1:	c7 04 24 01 00 00 00 	mov    DWORD PTR [esp],0x1
 80492f8:	e8 b3 fd ff ff       	call   80490b0 <exit@plt>
 80492fd:	83 ec 0c             	sub    esp,0xc
 8049300:	8d 44 24 18          	lea    eax,[esp+0x18]
 8049304:	50                   	push   eax
 8049305:	e8 96 fd ff ff       	call   80490a0 <puts@plt>
 804930a:	c7 04 24 00 00 00 00 	mov    DWORD PTR [esp],0x0
 8049311:	e8 9a fd ff ff       	call   80490b0 <exit@plt>

08049316 <lose>:
 8049316:	83 ec 18             	sub    esp,0x18
 8049319:	68 6c a1 04 08       	push   0x804a16c
 804931e:	e8 7d fd ff ff       	call   80490a0 <puts@plt>
 8049323:	c7 04 24 90 a1 04 08 	mov    DWORD PTR [esp],0x804a190
 804932a:	e8 71 fd ff ff       	call   80490a0 <puts@plt>
 804932f:	b8 fe ff ff ff       	mov    eax,0xfffffffe
 8049334:	83 c4 1c             	add    esp,0x1c
 8049337:	c3                   	ret

08049338 <flush_stdin>:
 8049338:	83 ec 0c             	sub    esp,0xc
 804933b:	83 ec 0c             	sub    esp,0xc
 804933e:	ff 35 60 c0 04 08    	push   DWORD PTR ds:0x804c060
 8049344:	e8 c7 fd ff ff       	call   8049110 <getc@plt>
 8049349:	83 c4 10             	add    esp,0x10
 804934c:	83 f8 0a             	cmp    eax,0xa
 804934f:	74 05                	je     8049356 <flush_stdin+0x1e>
 8049351:	83 f8 ff             	cmp    eax,0xffffffff
 8049354:	75 e5                	jne    804933b <flush_stdin+0x3>
 8049356:	83 c4 0c             	add    esp,0xc
 8049359:	c3                   	ret

0804935a <loop>:
 804935a:	55                   	push   ebp
 804935b:	57                   	push   edi
 804935c:	56                   	push   esi
 804935d:	53                   	push   ebx
 804935e:	83 ec 78             	sub    esp,0x78
 8049361:	68 bc a1 04 08       	push   0x804a1bc
 8049366:	e8 35 fd ff ff       	call   80490a0 <puts@plt>
 804936b:	83 c4 04             	add    esp,0x4
 804936e:	ff 35 64 c0 04 08    	push   DWORD PTR ds:0x804c064
 8049374:	e8 e7 fc ff ff       	call   8049060 <fflush@plt>
 8049379:	83 c4 10             	add    esp,0x10
 804937c:	be 00 00 00 00       	mov    esi,0x0
 8049381:	eb 03                	jmp    8049386 <loop+0x2c>
 8049383:	83 c6 01             	add    esi,0x1
 8049386:	83 ec 08             	sub    esp,0x8
 8049389:	8d 44 b4 30          	lea    eax,[esp+esi*4+0x30]
 804938d:	50                   	push   eax
 804938e:	68 23 a0 04 08       	push   0x804a023
 8049393:	e8 68 fd ff ff       	call   8049100 <__isoc99_scanf@plt>
 8049398:	83 c4 10             	add    esp,0x10
 804939b:	85 c0                	test   eax,eax
 804939d:	7f e4                	jg     8049383 <loop+0x29>
 804939f:	e8 94 ff ff ff       	call   8049338 <flush_stdin>
 80493a4:	c7 44 24 0c 00 00 00 	mov    DWORD PTR [esp+0xc],0x0
 80493ab:	00 
 80493ac:	bf 00 00 00 00       	mov    edi,0x0
 80493b1:	eb 2a                	jmp    80493dd <loop+0x83>
 80493b3:	83 c1 01             	add    ecx,0x1
 80493b6:	39 f1                	cmp    ecx,esi
 80493b8:	73 1e                	jae    80493d8 <loop+0x7e>
 80493ba:	8b 5c 8c 28          	mov    ebx,DWORD PTR [esp+ecx*4+0x28]
 80493be:	ba 1f 85 eb 51       	mov    edx,0x51eb851f
 80493c3:	89 d8                	mov    eax,ebx
 80493c5:	f7 e2                	mul    edx
 80493c7:	c1 ea 05             	shr    edx,0x5
 80493ca:	6b c2 64             	imul   eax,edx,0x64
 80493cd:	29 c3                	sub    ebx,eax
 80493cf:	39 eb                	cmp    ebx,ebp
 80493d1:	75 e0                	jne    80493b3 <loop+0x59>
 80493d3:	83 c7 01             	add    edi,0x1
 80493d6:	eb db                	jmp    80493b3 <loop+0x59>
 80493d8:	83 44 24 0c 01       	add    DWORD PTR [esp+0xc],0x1
 80493dd:	39 74 24 0c          	cmp    DWORD PTR [esp+0xc],esi
 80493e1:	73 26                	jae    8049409 <loop+0xaf>
 80493e3:	e8 f8 fc ff ff       	call   80490e0 <rand@plt>
 80493e8:	89 c1                	mov    ecx,eax
 80493ea:	ba 1f 85 eb 51       	mov    edx,0x51eb851f
 80493ef:	f7 ea                	imul   edx
 80493f1:	c1 fa 05             	sar    edx,0x5
 80493f4:	89 c8                	mov    eax,ecx
 80493f6:	c1 f8 1f             	sar    eax,0x1f
 80493f9:	29 c2                	sub    edx,eax
 80493fb:	6b c2 64             	imul   eax,edx,0x64
 80493fe:	29 c1                	sub    ecx,eax
 8049400:	89 cd                	mov    ebp,ecx
 8049402:	b9 00 00 00 00       	mov    ecx,0x0
 8049407:	eb ad                	jmp    80493b6 <loop+0x5c>
 8049409:	89 f8                	mov    eax,edi
 804940b:	0f b6 c0             	movzx  eax,al
 804940e:	69 c0 01 01 01 01    	imul   eax,eax,0x1010101
 8049414:	89 44 24 59          	mov    DWORD PTR [esp+0x59],eax
 8049418:	89 f8                	mov    eax,edi
 804941a:	0f b6 d0             	movzx  edx,al
 804941d:	89 f8                	mov    eax,edi
 804941f:	c1 e0 08             	shl    eax,0x8
 8049422:	01 d0                	add    eax,edx
 8049424:	66 89 44 24 5d       	mov    WORD PTR [esp+0x5d],ax
 8049429:	89 f8                	mov    eax,edi
 804942b:	88 44 24 5f          	mov    BYTE PTR [esp+0x5f],al
 804942f:	56                   	push   esi
 8049430:	57                   	push   edi
 8049431:	68 26 a0 04 08       	push   0x804a026
 8049436:	6a 01                	push   0x1
 8049438:	e8 b3 fc ff ff       	call   80490f0 <__printf_chk@plt>
 804943d:	b8 65 00 00 00       	mov    eax,0x65
 8049442:	29 f8                	sub    eax,edi
 8049444:	8b 15 6c c0 04 08    	mov    edx,DWORD PTR ds:0x804c06c
 804944a:	83 c4 10             	add    esp,0x10
 804944d:	39 d0                	cmp    eax,edx
 804944f:	0f 86 d7 00 00 00    	jbe    804952c <loop+0x1d2>
 8049455:	c7 05 6c c0 04 08 00 	mov    DWORD PTR ds:0x804c06c,0x0
 804945c:	00 00 00 
 804945f:	a1 6c c0 04 08       	mov    eax,ds:0x804c06c
 8049464:	85 c0                	test   eax,eax
 8049466:	0f 84 ce 00 00 00    	je     804953a <loop+0x1e0>
 804946c:	83 ec 04             	sub    esp,0x4
 804946f:	50                   	push   eax
 8049470:	68 3d a0 04 08       	push   0x804a03d
 8049475:	6a 01                	push   0x1
 8049477:	e8 74 fc ff ff       	call   80490f0 <__printf_chk@plt>
 804947c:	83 c4 08             	add    esp,0x8
 804947f:	68 55 a0 04 08       	push   0x804a055
 8049484:	6a 01                	push   0x1
 8049486:	e8 65 fc ff ff       	call   80490f0 <__printf_chk@plt>
 804948b:	83 c4 04             	add    esp,0x4
 804948e:	ff 35 64 c0 04 08    	push   DWORD PTR ds:0x804c064
 8049494:	e8 c7 fb ff ff       	call   8049060 <fflush@plt>
 8049499:	83 c4 08             	add    esp,0x8
 804949c:	8d 44 24 1b          	lea    eax,[esp+0x1b]
 80494a0:	50                   	push   eax
 80494a1:	68 65 a0 04 08       	push   0x804a065
 80494a6:	e8 55 fc ff ff       	call   8049100 <__isoc99_scanf@plt>
 80494ab:	e8 88 fe ff ff       	call   8049338 <flush_stdin>
 80494b0:	0f b6 54 24 25       	movzx  edx,BYTE PTR [esp+0x25]
 80494b5:	0f b6 c2             	movzx  eax,dl
 80494b8:	69 c0 01 01 01 01    	imul   eax,eax,0x1010101
 80494be:	89 44 24 27          	mov    DWORD PTR [esp+0x27],eax
 80494c2:	89 44 24 2b          	mov    DWORD PTR [esp+0x2b],eax
 80494c6:	89 44 24 2f          	mov    DWORD PTR [esp+0x2f],eax
 80494ca:	89 44 24 33          	mov    DWORD PTR [esp+0x33],eax
 80494ce:	88 54 24 37          	mov    BYTE PTR [esp+0x37],dl
 80494d2:	0f b6 44 24 23       	movzx  eax,BYTE PTR [esp+0x23]
 80494d7:	83 c4 10             	add    esp,0x10
 80494da:	3c 6e                	cmp    al,0x6e
 80494dc:	74 63                	je     8049541 <loop+0x1e7>
 80494de:	3c 4e                	cmp    al,0x4e
 80494e0:	74 5f                	je     8049541 <loop+0x1e7>
 80494e2:	e8 f9 fb ff ff       	call   80490e0 <rand@plt>
 80494e7:	89 c1                	mov    ecx,eax
 80494e9:	ba a7 3c 80 a6       	mov    edx,0xa6803ca7
 80494ee:	f7 ea                	imul   edx
 80494f0:	8d 04 0a             	lea    eax,[edx+ecx*1]
 80494f3:	c1 f8 11             	sar    eax,0x11
 80494f6:	89 ca                	mov    edx,ecx
 80494f8:	c1 fa 1f             	sar    edx,0x1f
 80494fb:	29 d0                	sub    eax,edx
 80494fd:	69 d0 37 13 03 00    	imul   edx,eax,0x31337
 8049503:	89 c8                	mov    eax,ecx
 8049505:	29 d0                	sub    eax,edx
 8049507:	a3 70 c0 04 08       	mov    ds:0x804c070,eax
 804950c:	83 ec 04             	sub    esp,0x4
 804950f:	50                   	push   eax
 8049510:	68 08 a2 04 08       	push   0x804a208
 8049515:	6a 01                	push   0x1
 8049517:	e8 d4 fb ff ff       	call   80490f0 <__printf_chk@plt>
 804951c:	83 c4 10             	add    esp,0x10
 804951f:	b8 00 00 00 00       	mov    eax,0x0
 8049524:	83 c4 6c             	add    esp,0x6c
 8049527:	5b                   	pop    ebx
 8049528:	5e                   	pop    esi
 8049529:	5f                   	pop    edi
 804952a:	5d                   	pop    ebp
 804952b:	c3                   	ret
 804952c:	8d 44 3a 9b          	lea    eax,[edx+edi*1-0x65]
 8049530:	a3 6c c0 04 08       	mov    ds:0x804c06c,eax
 8049535:	e9 25 ff ff ff       	jmp    804945f <loop+0x105>
 804953a:	e8 d7 fd ff ff       	call   8049316 <lose>
 804953f:	eb e3                	jmp    8049524 <loop+0x1ca>
 8049541:	83 ec 0c             	sub    esp,0xc
 8049544:	68 6c a0 04 08       	push   0x804a06c
 8049549:	e8 52 fb ff ff       	call   80490a0 <puts@plt>
 804954e:	83 c4 10             	add    esp,0x10
 8049551:	b8 01 00 00 00       	mov    eax,0x1
 8049556:	eb cc                	jmp    8049524 <loop+0x1ca>

08049558 <main>:
 8049558:	8d 4c 24 04          	lea    ecx,[esp+0x4]
 804955c:	83 e4 f0             	and    esp,0xfffffff0
 804955f:	ff 71 fc             	push   DWORD PTR [ecx-0x4]
 8049562:	55                   	push   ebp
 8049563:	89 e5                	mov    ebp,esp
 8049565:	53                   	push   ebx
 8049566:	51                   	push   ecx
 8049567:	83 ec 2c             	sub    esp,0x2c
 804956a:	68 28 a2 04 08       	push   0x804a228
 804956f:	e8 2c fb ff ff       	call   80490a0 <puts@plt>
 8049574:	c7 04 24 00 00 00 00 	mov    DWORD PTR [esp],0x0
 804957b:	e8 10 fb ff ff       	call   8049090 <time@plt>
 8049580:	d1 f8                	sar    eax,1
 8049582:	69 c0 39 05 00 00    	imul   eax,eax,0x539
 8049588:	89 04 24             	mov    DWORD PTR [esp],eax
 804958b:	e8 30 fb ff ff       	call   80490c0 <srand@plt>
 8049590:	e8 4b fb ff ff       	call   80490e0 <rand@plt>
 8049595:	89 c1                	mov    ecx,eax
 8049597:	ba 49 09 39 15       	mov    edx,0x15390949
 804959c:	f7 ea                	imul   edx
 804959e:	c1 fa 04             	sar    edx,0x4
 80495a1:	89 c8                	mov    eax,ecx
 80495a3:	c1 f8 1f             	sar    eax,0x1f
 80495a6:	29 c2                	sub    edx,eax
 80495a8:	69 c2 c1 00 00 00    	imul   eax,edx,0xc1
 80495ae:	29 c1                	sub    ecx,eax
 80495b0:	8d 84 89 fa 00 00 00 	lea    eax,[ecx+ecx*4+0xfa]
 80495b7:	a3 6c c0 04 08       	mov    ds:0x804c06c,eax
 80495bc:	e8 1f fb ff ff       	call   80490e0 <rand@plt>
 80495c1:	89 c1                	mov    ecx,eax
 80495c3:	ba a7 3c 80 a6       	mov    edx,0xa6803ca7
 80495c8:	f7 ea                	imul   edx
 80495ca:	01 ca                	add    edx,ecx
 80495cc:	c1 fa 11             	sar    edx,0x11
 80495cf:	89 c8                	mov    eax,ecx
 80495d1:	c1 f8 1f             	sar    eax,0x1f
 80495d4:	29 c2                	sub    edx,eax
 80495d6:	69 c2 37 13 03 00    	imul   eax,edx,0x31337
 80495dc:	29 c1                	sub    ecx,eax
 80495de:	89 0d 70 c0 04 08    	mov    DWORD PTR ds:0x804c070,ecx
 80495e4:	c7 04 24 75 a0 04 08 	mov    DWORD PTR [esp],0x804a075
 80495eb:	e8 b0 fa ff ff       	call   80490a0 <puts@plt>
 80495f0:	83 c4 04             	add    esp,0x4
 80495f3:	ff 35 64 c0 04 08    	push   DWORD PTR ds:0x804c064
 80495f9:	e8 62 fa ff ff       	call   8049060 <fflush@plt>
 80495fe:	83 c4 08             	add    esp,0x8
 8049601:	8d 5d d9             	lea    ebx,[ebp-0x27]
 8049604:	53                   	push   ebx
 8049605:	68 8d a0 04 08       	push   0x804a08d
 804960a:	e8 f1 fa ff ff       	call   8049100 <__isoc99_scanf@plt>
 804960f:	83 c4 08             	add    esp,0x8
 8049612:	68 95 a0 04 08       	push   0x804a095
 8049617:	53                   	push   ebx
 8049618:	e8 23 fa ff ff       	call   8049040 <strcmp@plt>
 804961d:	83 c4 10             	add    esp,0x10
 8049620:	85 c0                	test   eax,eax
 8049622:	74 3d                	je     8049661 <main+0x109>
 8049624:	83 ec 04             	sub    esp,0x4
 8049627:	8d 45 d9             	lea    eax,[ebp-0x27]
 804962a:	50                   	push   eax
 804962b:	68 b7 a0 04 08       	push   0x804a0b7
 8049630:	6a 01                	push   0x1
 8049632:	e8 b9 fa ff ff       	call   80490f0 <__printf_chk@plt>
 8049637:	83 c4 0c             	add    esp,0xc
 804963a:	ff 35 6c c0 04 08    	push   DWORD PTR ds:0x804c06c
 8049640:	68 c5 a0 04 08       	push   0x804a0c5
 8049645:	6a 01                	push   0x1
 8049647:	e8 a4 fa ff ff       	call   80490f0 <__printf_chk@plt>
 804964c:	83 c4 10             	add    esp,0x10
 804964f:	e8 06 fd ff ff       	call   804935a <loop>
 8049654:	85 c0                	test   eax,eax
 8049656:	78 27                	js     804967f <main+0x127>
 8049658:	74 f5                	je     804964f <main+0xf7>
 804965a:	b8 00 00 00 00       	mov    eax,0x0
 804965f:	eb 20                	jmp    8049681 <main+0x129>
 8049661:	83 ec 0c             	sub    esp,0xc
 8049664:	68 54 a2 04 08       	push   0x804a254
 8049669:	e8 32 fa ff ff       	call   80490a0 <puts@plt>
 804966e:	c7 04 24 a2 a0 04 08 	mov    DWORD PTR [esp],0x804a0a2
 8049675:	e8 26 fa ff ff       	call   80490a0 <puts@plt>
 804967a:	83 c4 10             	add    esp,0x10
 804967d:	eb a5                	jmp    8049624 <main+0xcc>
 804967f:	f7 d8                	neg    eax
 8049681:	8d 65 f8             	lea    esp,[ebp-0x8]
 8049684:	59                   	pop    ecx
 8049685:	5b                   	pop    ebx
 8049686:	5d                   	pop    ebp
 8049687:	8d 61 fc             	lea    esp,[ecx-0x4]
 804968a:	c3                   	ret

Disassembly of section .fini:

0804968c <_fini>:
 804968c:	f3 0f 1e fb          	endbr32
 8049690:	53                   	push   ebx
 8049691:	83 ec 08             	sub    esp,0x8
 8049694:	e8 d7 fa ff ff       	call   8049170 <__x86.get_pc_thunk.bx>
 8049699:	81 c3 67 29 00 00    	add    ebx,0x2967
 804969f:	83 c4 08             	add    esp,0x8
 80496a2:	5b                   	pop    ebx
 80496a3:	c3                   	ret
